Certificate:
    Data:
        Version: 3 (0x2)
        Serial Number:
            ae:c1:34:6b:ee:f8:09:11:a5:ab:28:10:bb:6f:57:b6
        Signature Algorithm: sha256WithRSAEncryption
        Issuer: CN=mlui.ibeeto.com
        Validity
            Not Before: May 25 19:28:33 2023 GMT
            Not After : Aug 27 19:28:33 2025 GMT
        Subject: CN=viking
        Subject Public Key Info:
            Public Key Algorithm: rsaEncryption
                Public-Key: (2048 bit)
                Modulus:
                    00:a7:d2:4d:ee:9e:88:7c:ee:c7:ed:71:29:7d:bb:
                    2b:07:e9:84:51:23:35:4a:a8:9c:b1:e2:3d:06:cb:
                    1c:1b:18:0b:71:61:4a:27:3e:a8:93:87:53:de:2e:
                    d3:75:60:5d:36:69:a9:ee:3a:89:06:67:f6:aa:73:
                    01:04:88:12:07:2f:6c:43:bd:96:ca:78:da:24:a1:
                    ee:aa:8b:43:0f:b0:55:18:b6:1c:39:c6:67:42:42:
                    59:84:50:6d:a8:a8:08:3a:22:d2:93:61:53:fd:42:
                    28:16:61:cf:47:ca:7b:ae:c3:63:a9:4e:d7:bc:c9:
                    26:72:0d:e2:d4:b4:82:e0:e9:18:5b:8c:c2:1b:c1:
                    c3:f8:8f:a0:ec:25:d0:c5:a5:39:6e:89:59:41:01:
                    98:cb:a6:e0:b5:3f:40:e4:f4:2f:86:24:b2:5c:20:
                    df:40:b4:88:49:05:6c:b5:b3:b2:02:72:13:93:33:
                    69:2c:a4:27:9b:44:6f:77:b9:0e:cb:9b:fa:e9:26:
                    b6:be:0d:c5:9b:a1:b4:94:9e:1f:e5:ab:3a:df:38:
                    09:ce:77:71:95:b0:dd:a2:ec:77:2d:b9:20:7a:e8:
                    ea:f2:16:85:62:47:f6:a5:3a:95:28:5c:4c:58:4f:
                    55:2d:75:23:85:4d:a7:6f:95:1c:5c:b9:b0:42:86:
                    f3:47
                Exponent: 65537 (0x10001)
        X509v3 extensions:
            X509v3 Basic Constraints: 
                CA:FALSE
            X509v3 Subject Key Identifier: 
                C9:F8:0E:8D:0F:DE:2B:5F:BD:CB:EE:20:5E:2B:CC:D3:7D:A0:E1:89
            X509v3 Authority Key Identifier: 
                keyid:4A:B3:87:F8:D4:71:FD:90:36:03:32:15:55:0A:46:64:EA:F9:88:A6
                DirName:/CN=mlui.ibeeto.com
                serial:27:A5:BB:FB:EB:80:53:76:4F:83:DF:FD:28:36:7C:24:4D:77:E0:C9
            X509v3 Extended Key Usage: 
                TLS Web Client Authentication
            X509v3 Key Usage: 
                Digital Signature
    Signature Algorithm: sha256WithRSAEncryption
    Signature Value:
        67:59:24:46:f4:ef:5f:6c:af:88:b9:22:23:3a:db:03:da:e2:
        f8:cd:8e:70:f2:8c:ea:94:50:80:db:b6:5d:23:d6:44:01:5b:
        f1:98:3f:90:7e:1e:01:46:e5:c4:b3:2c:86:25:2b:b5:73:f9:
        d8:a0:99:ca:d0:f6:d1:4f:84:d5:a4:13:38:98:25:5e:d2:7e:
        49:4b:e6:11:4b:64:a0:ec:a7:47:32:02:4b:f4:6c:e6:79:cd:
        64:14:93:f4:ce:af:72:27:d5:9d:c6:b2:2f:4d:0f:9f:6d:47:
        73:f7:b3:db:70:94:70:55:42:91:a7:3e:38:62:63:90:08:73:
        69:26:49:63:0e:ae:88:ed:db:ff:19:6f:6c:0d:2f:c1:01:84:
        d1:7c:19:6c:df:b3:fd:3b:44:26:e1:78:40:b9:18:7e:e0:bb:
        3e:9b:38:94:98:6e:ef:cd:d5:91:ac:6f:ed:7e:54:55:66:dd:
        c6:4d:88:3f:2d:ad:7b:eb:40:c2:f5:32:00:49:c8:0a:60:3b:
        10:c6:e7:6c:72:96:cf:e0:73:e2:3b:c9:25:b9:7d:17:40:26:
        50:85:5c:19:88:54:0b:d9:6c:44:3b:ed:e4:51:a5:0f:2e:90:
        c5:a8:98:3d:6c:f1:10:84:a1:33:17:17:12:16:49:10:0a:03:
        4d:2b:cb:9e
-----BEGIN CERTIFICATE-----
MIIDXTCCAkWgAwIBAgIRAK7BNGvu+AkRpasoELtvV7YwDQYJKoZIhvcNAQELBQAw
GjEYMBYGA1UEAwwPbWx1aS5pYmVldG8uY29tMB4XDTIzMDUyNTE5MjgzM1oXDTI1
MDgyNzE5MjgzM1owETEPMA0GA1UEAwwGdmlraW5nMIIBIjANBgkqhkiG9w0BAQEF
AAOCAQ8AMIIBCgKCAQEAp9JN7p6IfO7H7XEpfbsrB+mEUSM1SqicseI9BsscGxgL
cWFKJz6ok4dT3i7TdWBdNmmp7jqJBmf2qnMBBIgSBy9sQ72WynjaJKHuqotDD7BV
GLYcOcZnQkJZhFBtqKgIOiLSk2FT/UIoFmHPR8p7rsNjqU7XvMkmcg3i1LSC4OkY
W4zCG8HD+I+g7CXQxaU5bolZQQGYy6bgtT9A5PQvhiSyXCDfQLSISQVstbOyAnIT
kzNpLKQnm0Rvd7kOy5v66Sa2vg3Fm6G0lJ4f5as63zgJzndxlbDdoux3Lbkgeujq
8haFYkf2pTqVKFxMWE9VLXUjhU2nb5UcXLmwQobzRwIDAQABo4GmMIGjMAkGA1Ud
EwQCMAAwHQYDVR0OBBYEFMn4Do0P3itfvcvuIF4rzNN9oOGJMFUGA1UdIwROMEyA
FEqzh/jUcf2QNgMyFVUKRmTq+YimoR6kHDAaMRgwFgYDVQQDDA9tbHVpLmliZWV0
by5jb22CFCelu/vrgFN2T4Pf/Sg2fCRNd+DJMBMGA1UdJQQMMAoGCCsGAQUFBwMC
MAsGA1UdDwQEAwIHgDANBgkqhkiG9w0BAQsFAAOCAQEAZ1kkRvTvX2yviLkiIzrb
A9ri+M2OcPKM6pRQgNu2XSPWRAFb8Zg/kH4eAUblxLMshiUrtXP52KCZytD20U+E
1aQTOJglXtJ+SUvmEUtkoOynRzICS/Rs5nnNZBST9M6vcifVncayL00Pn21Hc/ez
23CUcFVCkac+OGJjkAhzaSZJYw6uiO3b/xlvbA0vwQGE0XwZbN+z/TtEJuF4QLkY
fuC7Pps4lJhu783Vkaxv7X5UVWbdxk2IPy2te+tAwvUyAEnICmA7EMbnbHKWz+Bz
4jvJJbl9F0AmUIVcGYhUC9lsRDvt5FGlDy6QxaiYPWzxEIShMxcXEhZJEAoDTSvL
ng==
-----END CERTIFICATE-----
